Certificate:
    Data:
        Version: 3 (0x2)
        Serial Number:
            0a:f9:13:76:3a:46:69:46:6b:d9:69:26:7e:0e:a9:90
        Signature Algorithm: ecdsa-with-SHA512
        Issuer: CN=outstacart.com
        Validity
            Not Before: Mar 28 19:19:25 2021 GMT
            Not After : Mar 12 19:19:25 2024 GMT
        Subject: CN=api7.outstacart.com
        Subject Public Key Info:
            Public Key Algorithm: id-ecPublicKey
                Public-Key: (384 bit)
                pub:
                    04:a5:53:53:29:75:6f:e9:55:96:56:46:3a:4c:da:
                    e2:c6:4b:25:5d:77:0b:33:7a:e5:16:e1:fa:bc:e7:
                    57:f6:8f:5d:70:81:e9:84:0f:55:5e:31:e9:f2:38:
                    3d:03:5f:97:95:ed:32:b9:90:0f:96:93:4b:98:4f:
                    ca:e5:ce:87:61:5a:73:f5:78:9b:25:af:41:86:bb:
                    95:ca:2a:2b:da:92:53:81:14:f0:56:07:0e:d9:a2:
                    28:2f:92:1d:f3:b0:72
                ASN1 OID: secp384r1
                NIST CURVE: P-384
        X509v3 extensions:
            X509v3 Basic Constraints: 
                CA:FALSE
            X509v3 Subject Key Identifier: 
                26:08:F9:F1:70:90:62:10:87:37:24:37:F7:6E:67:CB:0D:E3:F4:22
            X509v3 Authority Key Identifier: 
                keyid:8F:6F:FE:C8:34:82:1B:95:0F:56:96:E4:F1:86:BB:B5:D5:14:10:1D
                DirName:/CN=outstacart.com
                serial:57:13:4C:CF:52:14:52:C6:88:2E:6B:5E:06:9D:76:29:37:97:F5:CE

            X509v3 Extended Key Usage: 
                TLS Web Server Authentication
            X509v3 Key Usage: 
                Digital Signature, Key Encipherment
            X509v3 Subject Alternative Name: 
                DNS:api7.outstacart.com
    Signature Algorithm: ecdsa-with-SHA512
         30:65:02:30:31:d8:5c:f8:b2:77:eb:b9:0c:33:f9:41:f2:98:
         73:87:73:26:4a:cd:6d:10:8e:e8:dc:b7:a5:6b:77:19:f9:2e:
         d5:2b:88:4e:a9:ac:54:9d:c0:d6:49:ce:07:ed:17:11:02:31:
         00:8a:71:6f:24:61:87:6c:6a:b6:d8:7f:11:75:50:b0:b9:98:
         18:75:39:9c:aa:27:97:57:94:28:82:48:b9:5c:5d:16:b1:70:
         94:7d:4d:37:5f:af:d8:86:86:8b:09:fc:7f
-----BEGIN CERTIFICATE-----
MIICODCCAb6gAwIBAgIQCvkTdjpGaUZr2Wkmfg6pkDAKBggqhkjOPQQDBDAZMRcw
FQYDVQQDDA5vdXRzdGFjYXJ0LmNvbTAeFw0yMTAzMjgxOTE5MjVaFw0yNDAzMTIx
OTE5MjVaMB4xHDAaBgNVBAMME2FwaTcub3V0c3RhY2FydC5jb20wdjAQBgcqhkjO
PQIBBgUrgQQAIgNiAASlU1MpdW/pVZZWRjpM2uLGSyVddwszeuUW4fq851f2j11w
gemED1VeMenyOD0DX5eV7TK5kA+Wk0uYT8rlzodhWnP1eJslr0GGu5XKKivaklOB
FPBWBw7Zoigvkh3zsHKjgcUwgcIwCQYDVR0TBAIwADAdBgNVHQ4EFgQUJgj58XCQ
YhCHNyQ3925nyw3j9CIwVAYDVR0jBE0wS4AUj2/+yDSCG5UPVpbk8Ya7tdUUEB2h
HaQbMBkxFzAVBgNVBAMMDm91dHN0YWNhcnQuY29tghRXE0zPUhRSxogua14GnXYp
N5f1zjATBgNVHSUEDDAKBggrBgEFBQcDATALBgNVHQ8EBAMCBaAwHgYDVR0RBBcw
FYITYXBpNy5vdXRzdGFjYXJ0LmNvbTAKBggqhkjOPQQDBANoADBlAjAx2Fz4snfr
uQwz+UHymHOHcyZKzW0Qjujct6Vrdxn5LtUriE6prFSdwNZJzgftFxECMQCKcW8k
YYdsarbYfxF1ULC5mBh1OZyqJ5dXlCiCSLlcXRaxcJR9TTdfr9iGhosJ/H8=
-----END CERTIFICATE-----
