Certificate:
    Data:
        Version: 3 (0x2)
        Serial Number:
            c0:dc:a9:c4:84:26:39:3b:14:a2:ae:5d:7c:a6:1c:f5
        Signature Algorithm: ecdsa-with-SHA512
        Issuer: CN=outstacart.com
        Validity
            Not Before: Mar 28 19:20:01 2021 GMT
            Not After : Mar 12 19:20:01 2024 GMT
        Subject: CN=portal7.outstacart.com
        Subject Public Key Info:
            Public Key Algorithm: id-ecPublicKey
                Public-Key: (384 bit)
                pub:
                    04:1d:d2:24:9a:7f:dc:81:9b:cd:28:e7:b4:fc:2f:
                    9d:5b:cd:e6:8c:af:f1:c4:44:b3:7f:fe:92:0d:42:
                    13:58:b8:d4:3f:83:19:6c:74:cc:26:3f:b7:e3:25:
                    20:e5:78:55:02:b9:39:8b:df:8c:c8:28:ba:e9:17:
                    aa:4e:76:dc:e3:ee:b3:df:4c:71:52:f9:88:2f:0d:
                    d5:8b:bc:79:23:92:a0:df:d9:e3:d4:63:e8:b3:5f:
                    c4:69:8c:f9:b1:71:dd
                ASN1 OID: secp384r1
                NIST CURVE: P-384
        X509v3 extensions:
            X509v3 Basic Constraints: 
                CA:FALSE
            X509v3 Subject Key Identifier: 
                E0:99:76:AD:D2:1C:27:82:59:0A:12:B2:CD:FC:85:35:1F:3F:5C:5C
            X509v3 Authority Key Identifier: 
                keyid:8F:6F:FE:C8:34:82:1B:95:0F:56:96:E4:F1:86:BB:B5:D5:14:10:1D
                DirName:/CN=outstacart.com
                serial:57:13:4C:CF:52:14:52:C6:88:2E:6B:5E:06:9D:76:29:37:97:F5:CE

            X509v3 Extended Key Usage: 
                TLS Web Server Authentication
            X509v3 Key Usage: 
                Digital Signature, Key Encipherment
            X509v3 Subject Alternative Name: 
                DNS:portal7.outstacart.com
    Signature Algorithm: ecdsa-with-SHA512
         30:65:02:31:00:e9:df:8a:2c:12:64:65:ee:21:ab:d1:72:69:
         c3:3b:48:22:e6:66:91:90:3c:13:b7:90:cf:e1:93:f2:97:48:
         d5:b0:d2:86:5b:0d:9f:42:63:40:5f:97:f5:3a:a6:bb:d8:02:
         30:6c:19:e4:89:a2:81:a9:5f:87:f3:53:4c:d0:11:eb:2d:9d:
         c1:8d:b4:0a:3e:e1:78:ae:a2:0b:f5:c9:93:ce:21:6c:c6:91:
         97:e3:c9:c8:0b:4c:c6:0e:57:6a:03:57:c9
-----BEGIN CERTIFICATE-----
MIICPzCCAcWgAwIBAgIRAMDcqcSEJjk7FKKuXXymHPUwCgYIKoZIzj0EAwQwGTEX
MBUGA1UEAwwOb3V0c3RhY2FydC5jb20wHhcNMjEwMzI4MTkyMDAxWhcNMjQwMzEy
MTkyMDAxWjAhMR8wHQYDVQQDDBZwb3J0YWw3Lm91dHN0YWNhcnQuY29tMHYwEAYH
KoZIzj0CAQYFK4EEACIDYgAEHdIkmn/cgZvNKOe0/C+dW83mjK/xxESzf/6SDUIT
WLjUP4MZbHTMJj+34yUg5XhVArk5i9+MyCi66ReqTnbc4+6z30xxUvmILw3Vi7x5
I5Kg39nj1GPos1/EaYz5sXHdo4HIMIHFMAkGA1UdEwQCMAAwHQYDVR0OBBYEFOCZ
dq3SHCeCWQoSss38hTUfP1xcMFQGA1UdIwRNMEuAFI9v/sg0ghuVD1aW5PGGu7XV
FBAdoR2kGzAZMRcwFQYDVQQDDA5vdXRzdGFjYXJ0LmNvbYIUVxNMz1IUUsaILmte
Bp12KTeX9c4wEwYDVR0lBAwwCgYIKwYBBQUHAwEwCwYDVR0PBAQDAgWgMCEGA1Ud
EQQaMBiCFnBvcnRhbDcub3V0c3RhY2FydC5jb20wCgYIKoZIzj0EAwQDaAAwZQIx
AOnfiiwSZGXuIavRcmnDO0gi5maRkDwTt5DP4ZPyl0jVsNKGWw2fQmNAX5f1Oqa7
2AIwbBnkiaKBqV+H81NM0BHrLZ3BjbQKPuF4rqIL9cmTziFsxpGX48nIC0zGDldq
A1fJ
-----END CERTIFICATE-----
